Certificate:
    Data:
        Version: 3 (0x2)
        Serial Number: 4096 (0x1000)
    Signature Algorithm: sha256WithRSAEncryption
        Issuer: C=TW, ST=Taipei, L=Taipei, O=NTU, OU=NTU, CN=B05202044ROOT
        Validity
            Not Before: Dec 15 21:02:55 2018 GMT
            Not After : Dec 15 21:02:55 2019 GMT
        Subject: C=TW, ST=Taipei, O=NTU, OU=NTU, CN=B05202044SERVER
        Subject Public Key Info:
            Public Key Algorithm: rsaEncryption
                Public-Key: (1024 bit)
                Modulus:
                    00:d5:d2:0f:38:9b:82:dc:12:4c:93:ae:91:67:2c:
                    61:c9:60:00:b5:d7:ed:92:4a:6f:e5:4b:ed:56:72:
                    df:34:83:57:c3:bd:a7:10:a6:e9:cc:b1:eb:ed:c3:
                    d0:57:23:3c:66:9a:3d:fe:eb:a3:50:20:c8:de:7e:
                    60:e2:0a:10:aa:63:5a:ac:4c:ef:cf:17:44:08:33:
                    36:6b:c3:df:ad:c6:a4:07:e7:33:53:43:5b:30:ef:
                    51:62:c5:63:70:5f:62:8b:6b:a9:6b:14:15:c8:9f:
                    e3:03:ec:94:c4:ea:8c:e0:e9:1c:fa:62:cc:46:ab:
                    8d:d1:63:be:3d:34:17:63:67
                Exponent: 65537 (0x10001)
        X509v3 extensions:
            X509v3 Basic Constraints: 
                CA:FALSE
            Netscape Comment: 
                OpenSSL Generated Certificate
            X509v3 Subject Key Identifier: 
                0E:80:04:4D:48:6F:8A:FE:7A:99:0D:2A:00:B0:CB:CE:7A:9E:45:61
            X509v3 Authority Key Identifier: 
                keyid:4C:03:94:0B:53:9A:34:62:E0:1F:9D:9E:EE:F0:13:90:5E:F6:80:48

    Signature Algorithm: sha256WithRSAEncryption
         5d:9c:ec:3b:2c:05:5a:f8:b2:ba:44:2d:6a:a5:16:ef:62:70:
         30:10:38:a1:00:56:40:a5:02:fa:10:51:81:41:0d:24:23:87:
         db:87:75:5a:1b:a7:be:fe:1f:48:86:c6:6a:ec:1c:8b:82:d4:
         58:f8:e1:9f:86:fc:48:b0:9e:7c:78:20:98:94:6e:38:ac:bf:
         80:99:5f:bc:0d:1d:74:87:43:29:f1:cb:11:30:a4:b1:e7:94:
         e4:f1:d6:25:f9:0c:1f:13:37:7a:80:62:20:02:02:80:4d:cd:
         9b:6d:a3:9a:87:97:57:2c:d0:36:0f:33:27:25:ef:b6:a5:ba:
         87:68
-----BEGIN CERTIFICATE-----
MIICqTCCAhKgAwIBAgICEAAwDQYJKoZIhvcNAQELBQAwYzELMAkGA1UEBhMCVFcx
DzANBgNVBAgMBlRhaXBlaTEPMA0GA1UEBwwGVGFpcGVpMQwwCgYDVQQKDANOVFUx
DDAKBgNVBAsMA05UVTEWMBQGA1UEAwwNQjA1MjAyMDQ0Uk9PVDAeFw0xODEyMTUy
MTAyNTVaFw0xOTEyMTUyMTAyNTVaMFQxCzAJBgNVBAYTAlRXMQ8wDQYDVQQIDAZU
YWlwZWkxDDAKBgNVBAoMA05UVTEMMAoGA1UECwwDTlRVMRgwFgYDVQQDDA9CMDUy
MDIwNDRTRVJWRVIwgZ8wDQYJKoZIhvcNAQEBBQADgY0AMIGJAoGBANXSDzibgtwS
TJOukWcsYclgALXX7ZJKb+VL7VZy3zSDV8O9pxCm6cyx6+3D0FcjPGaaPf7ro1Ag
yN5+YOIKEKpjWqxM788XRAgzNmvD363GpAfnM1NDWzDvUWLFY3BfYotrqWsUFcif
4wPslMTqjODpHPpizEarjdFjvj00F2NnAgMBAAGjezB5MAkGA1UdEwQCMAAwLAYJ
YIZIAYb4QgENBB8WHU9wZW5TU0wgR2VuZXJhdGVkIENlcnRpZmljYXRlMB0GA1Ud
DgQWBBQOgARNSG+K/nqZDSoAsMvOep5FYTAfBgNVHSMEGDAWgBRMA5QLU5o0YuAf
nZ7u8BOQXvaASDANBgkqhkiG9w0BAQsFAAOBgQBdnOw7LAVa+LK6RC1qpRbvYnAw
EDihAFZApQL6EFGBQQ0kI4fbh3VaG6e+/h9IhsZq7ByLgtRY+OGfhvxIsJ58eCCY
lG44rL+AmV+8DR10h0Mp8csRMKSx55Tk8dYl+QwfEzd6gGIgAgKATc2bbaOah5dX
LNA2DzMnJe+2pbqHaA==
-----END CERTIFICATE-----
